target datalayout = "e-m:e-p270:32:32-p271:32:32-p272:64:64-i64:64-i128:128-f80:128-n8:16:32:64-S128"
target triple = "x86_64-pc-linux-gnu"

%struct._image_pos = type { float, float, float, float }

; Function Attrs: nounwind uwtable
define void @_align_pos(ptr noundef %0, i32 noundef %1, i32 noundef %2, i32 noundef %3, ptr noundef %4) #0 {
  %6 = alloca ptr, align 8
  %7 = alloca i32, align 4
  %8 = alloca i32, align 4
  %9 = alloca i32, align 4
  %10 = alloca ptr, align 8
  store ptr %0, ptr %6, align 8, !tbaa !6
  store i32 %1, ptr %7, align 4, !tbaa !35
  store i32 %2, ptr %8, align 4, !tbaa !35
  store i32 %3, ptr %9, align 4, !tbaa !35
  store ptr %4, ptr %10, align 8, !tbaa !6
  %11 = load i32, ptr %8, align 4, !tbaa !35
  %12 = sitofp i32 %11 to float
  %13 = load ptr, ptr %10, align 8, !tbaa !6
  %14 = getelementptr inbounds nuw %struct._image_pos, ptr %13, i32 0, i32 2
  store float %12, ptr %14, align 4, !tbaa !14
  %15 = load i32, ptr %9, align 4, !tbaa !35
  %16 = sitofp i32 %15 to float
  %17 = load ptr, ptr %10, align 8, !tbaa !6
  %18 = getelementptr inbounds nuw %struct._image_pos, ptr %17, i32 0, i32 3
  store float %16, ptr %18, align 4, !tbaa !11
  %19 = load i32, ptr %7, align 4, !tbaa !35
  switch i32 %19, label %209 [
    i32 0, label %20
    i32 1, label %31
    i32 2, label %50
    i32 3, label %68
    i32 4, label %87
    i32 5, label %114
    i32 6, label %140
    i32 7, label %158
    i32 8, label %184
  ]

20:                                               ; preds = %5
  %21 = load ptr, ptr %6, align 8, !tbaa !6
  %22 = getelementptr inbounds nuw %struct._image_pos, ptr %21, i32 0, i32 0
  %23 = load float, ptr %22, align 4, !tbaa !16
  %24 = load ptr, ptr %10, align 8, !tbaa !6
  %25 = getelementptr inbounds nuw %struct._image_pos, ptr %24, i32 0, i32 0
  store float %23, ptr %25, align 4, !tbaa !16
  %26 = load ptr, ptr %6, align 8, !tbaa !6
  %27 = getelementptr inbounds nuw %struct._image_pos, ptr %26, i32 0, i32 1
  %28 = load float, ptr %27, align 4, !tbaa !15
  %29 = load ptr, ptr %10, align 8, !tbaa !6
  %30 = getelementptr inbounds nuw %struct._image_pos, ptr %29, i32 0, i32 1
  store float %28, ptr %30, align 4, !tbaa !15
  br label %209

31:                                               ; preds = %5
  %32 = load ptr, ptr %6, align 8, !tbaa !6
  %33 = getelementptr inbounds nuw %struct._image_pos, ptr %32, i32 0, i32 0
  %34 = load float, ptr %33, align 4, !tbaa !16
  %35 = load ptr, ptr %6, align 8, !tbaa !6
  %36 = getelementptr inbounds nuw %struct._image_pos, ptr %35, i32 0, i32 2
  %37 = load float, ptr %36, align 4, !tbaa !14
  %38 = load i32, ptr %8, align 4, !tbaa !35
  %39 = sitofp i32 %38 to float
  %40 = fsub reassoc nsz arcp contract afn float %37, %39
  %41 = fdiv reassoc nsz arcp contract afn float %40, 2.000000e+00
  %42 = fadd reassoc nsz arcp contract afn float %34, %41
  %43 = load ptr, ptr %10, align 8, !tbaa !6
  %44 = getelementptr inbounds nuw %struct._image_pos, ptr %43, i32 0, i32 0
  store float %42, ptr %44, align 4, !tbaa !16
  %45 = load ptr, ptr %6, align 8, !tbaa !6
  %46 = getelementptr inbounds nuw %struct._image_pos, ptr %45, i32 0, i32 1
  %47 = load float, ptr %46, align 4, !tbaa !15
  %48 = load ptr, ptr %10, align 8, !tbaa !6
  %49 = getelementptr inbounds nuw %struct._image_pos, ptr %48, i32 0, i32 1
  store float %47, ptr %49, align 4, !tbaa !15
  br label %209

50:                                               ; preds = %5
  %51 = load ptr, ptr %6, align 8, !tbaa !6
  %52 = getelementptr inbounds nuw %struct._image_pos, ptr %51, i32 0, i32 0
  %53 = load float, ptr %52, align 4, !tbaa !16
  %54 = load ptr, ptr %6, align 8, !tbaa !6
  %55 = getelementptr inbounds nuw %struct._image_pos, ptr %54, i32 0, i32 2
  %56 = load float, ptr %55, align 4, !tbaa !14
  %57 = load i32, ptr %8, align 4, !tbaa !35
  %58 = sitofp i32 %57 to float
  %59 = fsub reassoc nsz arcp contract afn float %56, %58
  %60 = fadd reassoc nsz arcp contract afn float %53, %59
  %61 = load ptr, ptr %10, align 8, !tbaa !6
  %62 = getelementptr inbounds nuw %struct._image_pos, ptr %61, i32 0, i32 0
  store float %60, ptr %62, align 4, !tbaa !16
  %63 = load ptr, ptr %6, align 8, !tbaa !6
  %64 = getelementptr inbounds nuw %struct._image_pos, ptr %63, i32 0, i32 1
  %65 = load float, ptr %64, align 4, !tbaa !15
  %66 = load ptr, ptr %10, align 8, !tbaa !6
  %67 = getelementptr inbounds nuw %struct._image_pos, ptr %66, i32 0, i32 1
  store float %65, ptr %67, align 4, !tbaa !15
  br label %209

68:                                               ; preds = %5
  %69 = load ptr, ptr %6, align 8, !tbaa !6
  %70 = getelementptr inbounds nuw %struct._image_pos, ptr %69, i32 0, i32 0
  %71 = load float, ptr %70, align 4, !tbaa !16
  %72 = load ptr, ptr %10, align 8, !tbaa !6
  %73 = getelementptr inbounds nuw %struct._image_pos, ptr %72, i32 0, i32 0
  store float %71, ptr %73, align 4, !tbaa !16
  %74 = load ptr, ptr %6, align 8, !tbaa !6
  %75 = getelementptr inbounds nuw %struct._image_pos, ptr %74, i32 0, i32 1
  %76 = load float, ptr %75, align 4, !tbaa !15
  %77 = load ptr, ptr %6, align 8, !tbaa !6
  %78 = getelementptr inbounds nuw %struct._image_pos, ptr %77, i32 0, i32 3
  %79 = load float, ptr %78, align 4, !tbaa !11
  %80 = load i32, ptr %9, align 4, !tbaa !35
  %81 = sitofp i32 %80 to float
  %82 = fsub reassoc nsz arcp contract afn float %79, %81
  %83 = fdiv reassoc nsz arcp contract afn float %82, 2.000000e+00
  %84 = fadd reassoc nsz arcp contract afn float %76, %83
  %85 = load ptr, ptr %10, align 8, !tbaa !6
  %86 = getelementptr inbounds nuw %struct._image_pos, ptr %85, i32 0, i32 1
  store float %84, ptr %86, align 4, !tbaa !15
  br label %209

87:                                               ; preds = %5
  %88 = load ptr, ptr %6, align 8, !tbaa !6
  %89 = getelementptr inbounds nuw %struct._image_pos, ptr %88, i32 0, i32 0
  %90 = load float, ptr %89, align 4, !tbaa !16
  %91 = load ptr, ptr %6, align 8, !tbaa !6
  %92 = getelementptr inbounds nuw %struct._image_pos, ptr %91, i32 0, i32 2
  %93 = load float, ptr %92, align 4, !tbaa !14
  %94 = load i32, ptr %8, align 4, !tbaa !35
  %95 = sitofp i32 %94 to float
  %96 = fsub reassoc nsz arcp contract afn float %93, %95
  %97 = fdiv reassoc nsz arcp contract afn float %96, 2.000000e+00
  %98 = fadd reassoc nsz arcp contract afn float %90, %97
  %99 = load ptr, ptr %10, align 8, !tbaa !6
  %100 = getelementptr inbounds nuw %struct._image_pos, ptr %99, i32 0, i32 0
  store float %98, ptr %100, align 4, !tbaa !16
  %101 = load ptr, ptr %6, align 8, !tbaa !6
  %102 = getelementptr inbounds nuw %struct._image_pos, ptr %101, i32 0, i32 1
  %103 = load float, ptr %102, align 4, !tbaa !15
  %104 = load ptr, ptr %6, align 8, !tbaa !6
  %105 = getelementptr inbounds nuw %struct._image_pos, ptr %104, i32 0, i32 3
  %106 = load float, ptr %105, align 4, !tbaa !11
  %107 = load i32, ptr %9, align 4, !tbaa !35
  %108 = sitofp i32 %107 to float
  %109 = fsub reassoc nsz arcp contract afn float %106, %108
  %110 = fdiv reassoc nsz arcp contract afn float %109, 2.000000e+00
  %111 = fadd reassoc nsz arcp contract afn float %103, %110
  %112 = load ptr, ptr %10, align 8, !tbaa !6
  %113 = getelementptr inbounds nuw %struct._image_pos, ptr %112, i32 0, i32 1
  store float %111, ptr %113, align 4, !tbaa !15
  br label %209

114:                                              ; preds = %5
  %115 = load ptr, ptr %6, align 8, !tbaa !6
  %116 = getelementptr inbounds nuw %struct._image_pos, ptr %115, i32 0, i32 0
  %117 = load float, ptr %116, align 4, !tbaa !16
  %118 = load ptr, ptr %6, align 8, !tbaa !6
  %119 = getelementptr inbounds nuw %struct._image_pos, ptr %118, i32 0, i32 2
  %120 = load float, ptr %119, align 4, !tbaa !14
  %121 = load i32, ptr %8, align 4, !tbaa !35
  %122 = sitofp i32 %121 to float
  %123 = fsub reassoc nsz arcp contract afn float %120, %122
  %124 = fadd reassoc nsz arcp contract afn float %117, %123
  %125 = load ptr, ptr %10, align 8, !tbaa !6
  %126 = getelementptr inbounds nuw %struct._image_pos, ptr %125, i32 0, i32 0
  store float %124, ptr %126, align 4, !tbaa !16
  %127 = load ptr, ptr %6, align 8, !tbaa !6
  %128 = getelementptr inbounds nuw %struct._image_pos, ptr %127, i32 0, i32 1
  %129 = load float, ptr %128, align 4, !tbaa !15
  %130 = load ptr, ptr %6, align 8, !tbaa !6
  %131 = getelementptr inbounds nuw %struct._image_pos, ptr %130, i32 0, i32 3
  %132 = load float, ptr %131, align 4, !tbaa !11
  %133 = load i32, ptr %9, align 4, !tbaa !35
  %134 = sitofp i32 %133 to float
  %135 = fsub reassoc nsz arcp contract afn float %132, %134
  %136 = fdiv reassoc nsz arcp contract afn float %135, 2.000000e+00
  %137 = fadd reassoc nsz arcp contract afn float %129, %136
  %138 = load ptr, ptr %10, align 8, !tbaa !6
  %139 = getelementptr inbounds nuw %struct._image_pos, ptr %138, i32 0, i32 1
  store float %137, ptr %139, align 4, !tbaa !15
  br label %209

140:                                              ; preds = %5
  %141 = load ptr, ptr %6, align 8, !tbaa !6
  %142 = getelementptr inbounds nuw %struct._image_pos, ptr %141, i32 0, i32 0
  %143 = load float, ptr %142, align 4, !tbaa !16
  %144 = load ptr, ptr %10, align 8, !tbaa !6
  %145 = getelementptr inbounds nuw %struct._image_pos, ptr %144, i32 0, i32 0
  store float %143, ptr %145, align 4, !tbaa !16
  %146 = load ptr, ptr %6, align 8, !tbaa !6
  %147 = getelementptr inbounds nuw %struct._image_pos, ptr %146, i32 0, i32 1
  %148 = load float, ptr %147, align 4, !tbaa !15
  %149 = load ptr, ptr %6, align 8, !tbaa !6
  %150 = getelementptr inbounds nuw %struct._image_pos, ptr %149, i32 0, i32 3
  %151 = load float, ptr %150, align 4, !tbaa !11
  %152 = load i32, ptr %9, align 4, !tbaa !35
  %153 = sitofp i32 %152 to float
  %154 = fsub reassoc nsz arcp contract afn float %151, %153
  %155 = fadd reassoc nsz arcp contract afn float %148, %154
  %156 = load ptr, ptr %10, align 8, !tbaa !6
  %157 = getelementptr inbounds nuw %struct._image_pos, ptr %156, i32 0, i32 1
  store float %155, ptr %157, align 4, !tbaa !15
  br label %209

158:                                              ; preds = %5
  %159 = load ptr, ptr %6, align 8, !tbaa !6
  %160 = getelementptr inbounds nuw %struct._image_pos, ptr %159, i32 0, i32 0
  %161 = load float, ptr %160, align 4, !tbaa !16
  %162 = load ptr, ptr %6, align 8, !tbaa !6
  %163 = getelementptr inbounds nuw %struct._image_pos, ptr %162, i32 0, i32 2
  %164 = load float, ptr %163, align 4, !tbaa !14
  %165 = load i32, ptr %8, align 4, !tbaa !35
  %166 = sitofp i32 %165 to float
  %167 = fsub reassoc nsz arcp contract afn float %164, %166
  %168 = fdiv reassoc nsz arcp contract afn float %167, 2.000000e+00
  %169 = fadd reassoc nsz arcp contract afn float %161, %168
  %170 = load ptr, ptr %10, align 8, !tbaa !6
  %171 = getelementptr inbounds nuw %struct._image_pos, ptr %170, i32 0, i32 0
  store float %169, ptr %171, align 4, !tbaa !16
  %172 = load ptr, ptr %6, align 8, !tbaa !6
  %173 = getelementptr inbounds nuw %struct._image_pos, ptr %172, i32 0, i32 1
  %174 = load float, ptr %173, align 4, !tbaa !15
  %175 = load ptr, ptr %6, align 8, !tbaa !6
  %176 = getelementptr inbounds nuw %struct._image_pos, ptr %175, i32 0, i32 3
  %177 = load float, ptr %176, align 4, !tbaa !11
  %178 = load i32, ptr %9, align 4, !tbaa !35
  %179 = sitofp i32 %178 to float
  %180 = fsub reassoc nsz arcp contract afn float %177, %179
  %181 = fadd reassoc nsz arcp contract afn float %174, %180
  %182 = load ptr, ptr %10, align 8, !tbaa !6
  %183 = getelementptr inbounds nuw %struct._image_pos, ptr %182, i32 0, i32 1
  store float %181, ptr %183, align 4, !tbaa !15
  br label %209

184:                                              ; preds = %5
  %185 = load ptr, ptr %6, align 8, !tbaa !6
  %186 = getelementptr inbounds nuw %struct._image_pos, ptr %185, i32 0, i32 0
  %187 = load float, ptr %186, align 4, !tbaa !16
  %188 = load ptr, ptr %6, align 8, !tbaa !6
  %189 = getelementptr inbounds nuw %struct._image_pos, ptr %188, i32 0, i32 2
  %190 = load float, ptr %189, align 4, !tbaa !14
  %191 = load i32, ptr %8, align 4, !tbaa !35
  %192 = sitofp i32 %191 to float
  %193 = fsub reassoc nsz arcp contract afn float %190, %192
  %194 = fadd reassoc nsz arcp contract afn float %187, %193
  %195 = load ptr, ptr %10, align 8, !tbaa !6
  %196 = getelementptr inbounds nuw %struct._image_pos, ptr %195, i32 0, i32 0
  store float %194, ptr %196, align 4, !tbaa !16
  %197 = load ptr, ptr %6, align 8, !tbaa !6
  %198 = getelementptr inbounds nuw %struct._image_pos, ptr %197, i32 0, i32 1
  %199 = load float, ptr %198, align 4, !tbaa !15
  %200 = load ptr, ptr %6, align 8, !tbaa !6
  %201 = getelementptr inbounds nuw %struct._image_pos, ptr %200, i32 0, i32 3
  %202 = load float, ptr %201, align 4, !tbaa !11
  %203 = load i32, ptr %9, align 4, !tbaa !35
  %204 = sitofp i32 %203 to float
  %205 = fsub reassoc nsz arcp contract afn float %202, %204
  %206 = fadd reassoc nsz arcp contract afn float %199, %205
  %207 = load ptr, ptr %10, align 8, !tbaa !6
  %208 = getelementptr inbounds nuw %struct._image_pos, ptr %207, i32 0, i32 1
  store float %206, ptr %208, align 4, !tbaa !15
  br label %209

209:                                              ; preds = %5, %184, %158, %140, %114, %87, %68, %50, %31, %20
  ret void
}