; Function Attrs: mustprogress nofree norecurse nosync nounwind willreturn memory(argmem: readwrite) uwtable
define void @_align_pos(ptr noundef readonly captures(none) %0, i32 noundef %1, i32 noundef %2, i32 noundef %3, ptr noundef writeonly captures(none) initializes((8, 16)) %4) local_unnamed_addr #5 {
  %6 = sitofp i32 %2 to float
  %7 = getelementptr inbounds nuw i8, ptr %4, i64 8
  store float %6, ptr %7, align 4, !tbaa !30
  %8 = sitofp i32 %3 to float
  %9 = getelementptr inbounds nuw i8, ptr %4, i64 12
  store float %8, ptr %9, align 4, !tbaa !31
  switch i32 %1, label %101 [
    i32 0, label %10
    i32 1, label %14
    i32 2, label %23
    i32 3, label %31
    i32 4, label %40
    i32 5, label %54
    i32 6, label %67
    i32 7, label %75
    i32 8, label %88
  ]

10:                                               ; preds = %5
  %11 = load float, ptr %0, align 4, !tbaa !28
  store float %11, ptr %4, align 4, !tbaa !28
  %12 = getelementptr inbounds nuw i8, ptr %0, i64 4
  %13 = load float, ptr %12, align 4, !tbaa !29
  br label %.sink.split

14:                                               ; preds = %5
  %15 = load float, ptr %0, align 4, !tbaa !28
  %16 = getelementptr inbounds nuw i8, ptr %0, i64 8
  %17 = load float, ptr %16, align 4, !tbaa !30
  %18 = fsub reassoc nsz arcp contract afn float %17, %6
  %19 = fmul reassoc nsz arcp contract afn float %18, 5.000000e-01
  %20 = fadd reassoc nsz arcp contract afn float %19, %15
  store float %20, ptr %4, align 4, !tbaa !28
  %21 = getelementptr inbounds nuw i8, ptr %0, i64 4
  %22 = load float, ptr %21, align 4, !tbaa !29
  br label %.sink.split

23:                                               ; preds = %5
  %24 = load float, ptr %0, align 4, !tbaa !28
  %25 = getelementptr inbounds nuw i8, ptr %0, i64 8
  %26 = load float, ptr %25, align 4, !tbaa !30
  %27 = fsub reassoc nsz arcp contract afn float %24, %6
  %28 = fadd reassoc nsz arcp contract afn float %27, %26
  store float %28, ptr %4, align 4, !tbaa !28
  %29 = getelementptr inbounds nuw i8, ptr %0, i64 4
  %30 = load float, ptr %29, align 4, !tbaa !29
  br label %.sink.split

31:                                               ; preds = %5
  %32 = load float, ptr %0, align 4, !tbaa !28
  store float %32, ptr %4, align 4, !tbaa !28
  %33 = getelementptr inbounds nuw i8, ptr %0, i64 4
  %34 = load float, ptr %33, align 4, !tbaa !29
  %35 = getelementptr inbounds nuw i8, ptr %0, i64 12
  %36 = load float, ptr %35, align 4, !tbaa !31
  %37 = fsub reassoc nsz arcp contract afn float %36, %8
  %38 = fmul reassoc nsz arcp contract afn float %37, 5.000000e-01
  %39 = fadd reassoc nsz arcp contract afn float %38, %34
  br label %.sink.split

40:                                               ; preds = %5
  %41 = load float, ptr %0, align 4, !tbaa !28
  %42 = getelementptr inbounds nuw i8, ptr %0, i64 8
  %43 = load float, ptr %42, align 4, !tbaa !30
  %44 = fsub reassoc nsz arcp contract afn float %43, %6
  %45 = fmul reassoc nsz arcp contract afn float %44, 5.000000e-01
  %46 = fadd reassoc nsz arcp contract afn float %45, %41
  store float %46, ptr %4, align 4, !tbaa !28
  %47 = getelementptr inbounds nuw i8, ptr %0, i64 4
  %48 = load float, ptr %47, align 4, !tbaa !29
  %49 = getelementptr inbounds nuw i8, ptr %0, i64 12
  %50 = load float, ptr %49, align 4, !tbaa !31
  %51 = fsub reassoc nsz arcp contract afn float %50, %8
  %52 = fmul reassoc nsz arcp contract afn float %51, 5.000000e-01
  %53 = fadd reassoc nsz arcp contract afn float %52, %48
  br label %.sink.split

54:                                               ; preds = %5
  %55 = load float, ptr %0, align 4, !tbaa !28
  %56 = getelementptr inbounds nuw i8, ptr %0, i64 8
  %57 = load float, ptr %56, align 4, !tbaa !30
  %58 = fsub reassoc nsz arcp contract afn float %55, %6
  %59 = fadd reassoc nsz arcp contract afn float %58, %57
  store float %59, ptr %4, align 4, !tbaa !28
  %60 = getelementptr inbounds nuw i8, ptr %0, i64 4
  %61 = load float, ptr %60, align 4, !tbaa !29
  %62 = getelementptr inbounds nuw i8, ptr %0, i64 12
  %63 = load float, ptr %62, align 4, !tbaa !31
  %64 = fsub reassoc nsz arcp contract afn float %63, %8
  %65 = fmul reassoc nsz arcp contract afn float %64, 5.000000e-01
  %66 = fadd reassoc nsz arcp contract afn float %65, %61
  br label %.sink.split

67:                                               ; preds = %5
  %68 = load float, ptr %0, align 4, !tbaa !28
  store float %68, ptr %4, align 4, !tbaa !28
  %69 = getelementptr inbounds nuw i8, ptr %0, i64 4
  %70 = load float, ptr %69, align 4, !tbaa !29
  %71 = getelementptr inbounds nuw i8, ptr %0, i64 12
  %72 = load float, ptr %71, align 4, !tbaa !31
  %73 = fsub reassoc nsz arcp contract afn float %70, %8
  %74 = fadd reassoc nsz arcp contract afn float %73, %72
  br label %.sink.split

75:                                               ; preds = %5
  %76 = load float, ptr %0, align 4, !tbaa !28
  %77 = getelementptr inbounds nuw i8, ptr %0, i64 8
  %78 = load float, ptr %77, align 4, !tbaa !30
  %79 = fsub reassoc nsz arcp contract afn float %78, %6
  %80 = fmul reassoc nsz arcp contract afn float %79, 5.000000e-01
  %81 = fadd reassoc nsz arcp contract afn float %80, %76
  store float %81, ptr %4, align 4, !tbaa !28
  %82 = getelementptr inbounds nuw i8, ptr %0, i64 4
  %83 = load float, ptr %82, align 4, !tbaa !29
  %84 = getelementptr inbounds nuw i8, ptr %0, i64 12
  %85 = load float, ptr %84, align 4, !tbaa !31
  %86 = fsub reassoc nsz arcp contract afn float %83, %8
  %87 = fadd reassoc nsz arcp contract afn float %86, %85
  br label %.sink.split

88:                                               ; preds = %5
  %89 = load float, ptr %0, align 4, !tbaa !28
  %90 = getelementptr inbounds nuw i8, ptr %0, i64 8
  %91 = load float, ptr %90, align 4, !tbaa !30
  %92 = fsub reassoc nsz arcp contract afn float %89, %6
  %93 = fadd reassoc nsz arcp contract afn float %92, %91
  store float %93, ptr %4, align 4, !tbaa !28
  %94 = getelementptr inbounds nuw i8, ptr %0, i64 4
  %95 = load float, ptr %94, align 4, !tbaa !29
  %96 = getelementptr inbounds nuw i8, ptr %0, i64 12
  %97 = load float, ptr %96, align 4, !tbaa !31
  %98 = fsub reassoc nsz arcp contract afn float %95, %8
  %99 = fadd reassoc nsz arcp contract afn float %98, %97
  br label %.sink.split

.sink.split:                                      ; preds = %10, %14, %23, %31, %40, %54, %67, %75, %88
  %.sink = phi float [ %99, %88 ], [ %87, %75 ], [ %74, %67 ], [ %66, %54 ], [ %53, %40 ], [ %39, %31 ], [ %30, %23 ], [ %22, %14 ], [ %13, %10 ]
  %100 = getelementptr inbounds nuw i8, ptr %4, i64 4
  store float %.sink, ptr %100, align 4, !tbaa !29
  br label %101

101:                                              ; preds = %.sink.split, %5
  ret void
}